target datalayout = "e-m:e-p270:32:32-p271:32:32-p272:64:64-i64:64-i128:128-f80:128-n8:16:32:64-S128"
target triple = "x86_64-pc-linux-gnu"

%class.Node = type <{ ptr, ptr, ptr, i32, i32, i32, i32, i32, i32, i32, [4 x i8] }>
%class.Phase = type { i32, ptr }
%class.JVMState = type { ptr, i32, i32, i32, i32, i32, i32, i32, i32, i32, ptr, ptr }

; Function Attrs: mustprogress nounwind uwtable
define linkonce_odr hidden noundef zeroext i1 @_ZNK4Node7is_AddPEv(ptr noundef nonnull align 8 dereferenceable(52) %0) #1 comdat align 2 {
  %2 = alloca ptr, align 8
  store ptr %0, ptr %2, align 8
  %3 = load ptr, ptr %2, align 8
  %4 = getelementptr inbounds %class.Node, ptr %3, i32 0, i32 8
  %5 = load i32, ptr %4, align 4
  %6 = and i32 %5, 1023
  %7 = icmp eq i32 %6, 512
  ret i1 %7
}

; Function Attrs: mustprogress nounwind uwtable
define linkonce_odr hidden noundef i32 @_ZNK8JVMState3bciEv(ptr noundef nonnull align 8 dereferenceable(64) %0) #1 comdat align 2 {
  %2 = alloca ptr, align 8
  store ptr %0, ptr %2, align 8
  %3 = load ptr, ptr %2, align 8
  %4 = getelementptr inbounds %class.JVMState, ptr %3, i32 0, i32 8
  %5 = load i32, ptr %4, align 4
  ret i32 %5
}

; Function Attrs: mustprogress nounwind uwtable
define linkonce_odr hidden noundef ptr @_ZNK8JVMState6methodEv(ptr noundef nonnull align 8 dereferenceable(64) %0) #1 comdat align 2 {
  %2 = alloca ptr, align 8
  store ptr %0, ptr %2, align 8
  %3 = load ptr, ptr %2, align 8
  %4 = getelementptr inbounds %class.JVMState, ptr %3, i32 0, i32 10
  %5 = load ptr, ptr %4, align 8
  ret ptr %5
}

; Function Attrs: mustprogress nounwind uwtable
define linkonce_odr hidden noundef i32 @_ZN14Deoptimization19trap_request_reasonEi(i32 noundef %0) #1 comdat align 2 {
  %2 = alloca i32, align 4
  %3 = alloca i32, align 4
  store i32 %0, ptr %3, align 4
  %4 = load i32, ptr %3, align 4
  %5 = icmp slt i32 %4, 0
  br i1 %5, label %6, label %13

6:                                                ; preds = %1
  %7 = load i32, ptr %3, align 4
  %8 = xor i32 %7, -1
  %9 = ashr i32 %8, 3
  %10 = sext i32 %9 to i64
  %11 = and i64 %10, 31
  %12 = trunc i64 %11 to i32
  store i32 %12, ptr %2, align 4
  br label %14

13:                                               ; preds = %1
  store i32 9, ptr %2, align 4
  br label %14

14:                                               ; preds = %13, %6
  %15 = load i32, ptr %2, align 4
  ret i32 %15
}

; Function Attrs: mustprogress nounwind uwtable
define linkonce_odr hidden noundef ptr @_ZNK4Node7as_ProjEv(ptr noundef nonnull align 8 dereferenceable(52) %0) #1 comdat align 2 {
  %2 = alloca ptr, align 8
  store ptr %0, ptr %2, align 8
  %3 = load ptr, ptr %2, align 8
  ret ptr %3
}

; Function Attrs: mustprogress nounwind uwtable
define linkonce_odr hidden noundef ptr @_ZNK4Node2inEj(ptr noundef nonnull align 8 dereferenceable(52) %0, i32 noundef %1) #1 comdat align 2 {
  %3 = alloca ptr, align 8
  %4 = alloca i32, align 4
  store ptr %0, ptr %3, align 8
  store i32 %1, ptr %4, align 4
  %5 = load ptr, ptr %3, align 8
  %6 = getelementptr inbounds %class.Node, ptr %5, i32 0, i32 1
  %7 = load ptr, ptr %6, align 8
  %8 = load i32, ptr %4, align 4
  %9 = zext i32 %8 to i64
  %10 = getelementptr inbounds ptr, ptr %7, i64 %9
  %11 = load ptr, ptr %10, align 8
  ret ptr %11
}

; Function Attrs: mustprogress nounwind uwtable
define hidden noundef zeroext i1 @_ZN6IfNode21is_cmp_with_loadrangeEP8ProjNode(ptr noundef nonnull align 8 dereferenceable(60) %0, ptr noundef %1) #1 align 2 {
  %3 = alloca i1, align 1
  %4 = alloca ptr, align 8
  %5 = alloca ptr, align 8
  %6 = alloca ptr, align 8
  store ptr %0, ptr %4, align 8
  store ptr %1, ptr %5, align 8
  %7 = load ptr, ptr %4, align 8
  %8 = call noundef ptr @_ZNK4Node2inEj(ptr noundef nonnull align 8 dereferenceable(52) %7, i32 noundef 1)
  %9 = icmp ne ptr %8, null
  br i1 %9, label %10, label %73

10:                                               ; preds = %2
  %11 = call noundef ptr @_ZNK4Node2inEj(ptr noundef nonnull align 8 dereferenceable(52) %7, i32 noundef 1)
  %12 = call noundef ptr @_ZNK4Node2inEj(ptr noundef nonnull align 8 dereferenceable(52) %11, i32 noundef 1)
  %13 = icmp ne ptr %12, null
  br i1 %13, label %14, label %73

14:                                               ; preds = %10
  %15 = call noundef ptr @_ZNK4Node2inEj(ptr noundef nonnull align 8 dereferenceable(52) %7, i32 noundef 1)
  %16 = call noundef ptr @_ZNK4Node2inEj(ptr noundef nonnull align 8 dereferenceable(52) %15, i32 noundef 1)
  %17 = call noundef ptr @_ZNK4Node2inEj(ptr noundef nonnull align 8 dereferenceable(52) %16, i32 noundef 2)
  %18 = icmp ne ptr %17, null
  br i1 %18, label %19, label %73

19:                                               ; preds = %14
  %20 = call noundef ptr @_ZNK4Node2inEj(ptr noundef nonnull align 8 dereferenceable(52) %7, i32 noundef 1)
  %21 = call noundef ptr @_ZNK4Node2inEj(ptr noundef nonnull align 8 dereferenceable(52) %20, i32 noundef 1)
  %22 = call noundef ptr @_ZNK4Node2inEj(ptr noundef nonnull align 8 dereferenceable(52) %21, i32 noundef 2)
  store ptr %22, ptr %6, align 8
  %23 = load ptr, ptr %6, align 8
  %24 = load ptr, ptr %23, align 8
  %25 = getelementptr inbounds ptr, ptr %24, i64 0
  %26 = load ptr, ptr %25, align 8
  %27 = call noundef i32 %26(ptr noundef nonnull align 8 dereferenceable(52) %23)
  %28 = icmp eq i32 %27, 200
  br i1 %28, label %29, label %72

29:                                               ; preds = %19
  %30 = load ptr, ptr %6, align 8
  %31 = call noundef ptr @_ZNK4Node2inEj(ptr noundef nonnull align 8 dereferenceable(52) %30, i32 noundef 0)
  %32 = icmp ne ptr %31, null
  br i1 %32, label %33, label %38

33:                                               ; preds = %29
  %34 = load ptr, ptr %6, align 8
  %35 = call noundef ptr @_ZNK4Node2inEj(ptr noundef nonnull align 8 dereferenceable(52) %34, i32 noundef 0)
  %36 = load ptr, ptr %5, align 8
  %37 = icmp eq ptr %35, %36
  br i1 %37, label %71, label %38

38:                                               ; preds = %33, %29
  %39 = load ptr, ptr %6, align 8
  %40 = call noundef ptr @_ZNK4Node2inEj(ptr noundef nonnull align 8 dereferenceable(52) %39, i32 noundef 0)
  %41 = icmp eq ptr %40, null
  br i1 %41, label %42, label %72

42:                                               ; preds = %38
  %43 = load ptr, ptr %6, align 8
  %44 = call noundef ptr @_ZNK4Node2inEj(ptr noundef nonnull align 8 dereferenceable(52) %43, i32 noundef 2)
  %45 = icmp ne ptr %44, null
  br i1 %45, label %46, label %72

46:                                               ; preds = %42
  %47 = load ptr, ptr %6, align 8
  %48 = call noundef ptr @_ZNK4Node2inEj(ptr noundef nonnull align 8 dereferenceable(52) %47, i32 noundef 2)
  %49 = call noundef zeroext i1 @_ZNK4Node7is_AddPEv(ptr noundef nonnull align 8 dereferenceable(52) %48)
  br i1 %49, label %50, label %72

50:                                               ; preds = %46
  %51 = load ptr, ptr %6, align 8
  %52 = call noundef ptr @_ZNK4Node2inEj(ptr noundef nonnull align 8 dereferenceable(52) %51, i32 noundef 2)
  %53 = call noundef ptr @_ZNK4Node2inEj(ptr noundef nonnull align 8 dereferenceable(52) %52, i32 noundef 1)
  %54 = icmp ne ptr %53, null
  br i1 %54, label %55, label %72

55:                                               ; preds = %50
  %56 = load ptr, ptr %6, align 8
  %57 = call noundef ptr @_ZNK4Node2inEj(ptr noundef nonnull align 8 dereferenceable(52) %56, i32 noundef 2)
  %58 = call noundef ptr @_ZNK4Node2inEj(ptr noundef nonnull align 8 dereferenceable(52) %57, i32 noundef 1)
  %59 = load ptr, ptr %58, align 8
  %60 = getelementptr inbounds ptr, ptr %59, i64 0
  %61 = load ptr, ptr %60, align 8
  %62 = call noundef i32 %61(ptr noundef nonnull align 8 dereferenceable(52) %58)
  %63 = icmp eq i32 %62, 60
  br i1 %63, label %64, label %72

64:                                               ; preds = %55
  %65 = load ptr, ptr %6, align 8
  %66 = call noundef ptr @_ZNK4Node2inEj(ptr noundef nonnull align 8 dereferenceable(52) %65, i32 noundef 2)
  %67 = call noundef ptr @_ZNK4Node2inEj(ptr noundef nonnull align 8 dereferenceable(52) %66, i32 noundef 1)
  %68 = call noundef ptr @_ZNK4Node2inEj(ptr noundef nonnull align 8 dereferenceable(52) %67, i32 noundef 0)
  %69 = load ptr, ptr %5, align 8
  %70 = icmp eq ptr %68, %69
  br i1 %70, label %71, label %72

71:                                               ; preds = %64, %33
  store i1 true, ptr %3, align 1
  br label %74

72:                                               ; preds = %64, %55, %50, %46, %42, %38, %19
  br label %73

73:                                               ; preds = %72, %14, %10, %2
  store i1 false, ptr %3, align 1
  br label %74

74:                                               ; preds = %73, %71
  %75 = load i1, ptr %3, align 1
  ret i1 %75
}

; Function Attrs: mustprogress nounwind uwtable
define linkonce_odr hidden noundef i32 @_ZNK4Node6outcntEv(ptr noundef nonnull align 8 dereferenceable(52) %0) #1 comdat align 2 {
  %2 = alloca ptr, align 8
  store ptr %0, ptr %2, align 8
  %3 = load ptr, ptr %2, align 8
  %4 = getelementptr inbounds %class.Node, ptr %3, i32 0, i32 5
  %5 = load i32, ptr %4, align 8
  ret i32 %5
}

; Function Attrs: mustprogress nounwind uwtable
define hidden noundef zeroext i1 @_ZN6IfNode24is_side_effect_free_testEP8ProjNodeP12PhaseIterGVN(ptr noundef nonnull align 8 dereferenceable(60) %0, ptr noundef %1, ptr noundef %2) #1 align 2 {
  %4 = alloca i1, align 1
  %5 = alloca ptr, align 8
  %6 = alloca ptr, align 8
  %7 = alloca ptr, align 8
  %8 = alloca ptr, align 8
  %9 = alloca ptr, align 8
  %10 = alloca ptr, align 8
  %11 = alloca i32, align 4
  %12 = alloca i32, align 4
  store ptr %0, ptr %5, align 8
  store ptr %1, ptr %6, align 8
  store ptr %2, ptr %7, align 8
  %13 = load ptr, ptr %5, align 8
  %14 = load ptr, ptr %6, align 8
  %15 = icmp eq ptr %14, null
  br i1 %15, label %16, label %17

16:                                               ; preds = %3
  store i1 false, ptr %4, align 1
  br label %76

17:                                               ; preds = %3
  %18 = load ptr, ptr %6, align 8
  %19 = call noundef ptr @_ZNK8ProjNode27is_uncommon_trap_if_patternEN14Deoptimization11DeoptReasonE(ptr noundef nonnull align 8 dereferenceable(57) %18, i32 noundef 0)
  store ptr %19, ptr %8, align 8
  %20 = load ptr, ptr %8, align 8
  %21 = icmp ne ptr %20, null
  br i1 %21, label %22, label %75

22:                                               ; preds = %17
  %23 = load ptr, ptr %6, align 8
  %24 = call noundef i32 @_ZNK4Node6outcntEv(ptr noundef nonnull align 8 dereferenceable(52) %23)
  %25 = icmp ule i32 %24, 2
  br i1 %25, label %26, label %75

26:                                               ; preds = %22
  %27 = load ptr, ptr %6, align 8
  %28 = call noundef i32 @_ZNK4Node6outcntEv(ptr noundef nonnull align 8 dereferenceable(52) %27)
  %29 = icmp eq i32 %28, 1
  br i1 %29, label %37, label %30

30:                                               ; preds = %26
  %31 = load ptr, ptr %6, align 8
  %32 = call noundef zeroext i1 @_ZN6IfNode21is_cmp_with_loadrangeEP8ProjNode(ptr noundef nonnull align 8 dereferenceable(60) %13, ptr noundef %31)
  br i1 %32, label %33, label %74

33:                                               ; preds = %30
  %34 = load ptr, ptr %6, align 8
  %35 = load ptr, ptr %7, align 8
  %36 = call noundef zeroext i1 @_ZN6IfNode13is_null_checkEP8ProjNodeP12PhaseIterGVN(ptr noundef nonnull align 8 dereferenceable(60) %13, ptr noundef %34, ptr noundef %35)
  br i1 %36, label %37, label %74

37:                                               ; preds = %33, %26
  %38 = load ptr, ptr %6, align 8
  %39 = call noundef ptr @_ZNK8ProjNode27is_uncommon_trap_if_patternEN14Deoptimization11DeoptReasonE(ptr noundef nonnull align 8 dereferenceable(57) %38, i32 noundef 0)
  store ptr %39, ptr %9, align 8
  %40 = load ptr, ptr %6, align 8
  %41 = call noundef ptr @_ZNK4Node2inEj(ptr noundef nonnull align 8 dereferenceable(52) %40, i32 noundef 0)
  %42 = call noundef ptr @_ZNK4Node2inEj(ptr noundef nonnull align 8 dereferenceable(52) %41, i32 noundef 0)
  %43 = call noundef ptr @_ZNK4Node7as_ProjEv(ptr noundef nonnull align 8 dereferenceable(52) %42)
  %44 = call noundef ptr @_ZNK8ProjNode27is_uncommon_trap_if_patternEN14Deoptimization11DeoptReasonE(ptr noundef nonnull align 8 dereferenceable(57) %43, i32 noundef 0)
  store ptr %44, ptr %10, align 8
  %45 = load ptr, ptr %9, align 8
  %46 = call noundef i32 @_ZNK18CallStaticJavaNode21uncommon_trap_requestEv(ptr noundef nonnull align 8 dereferenceable(145) %45)
  store i32 %46, ptr %11, align 4
  %47 = load i32, ptr %11, align 4
  %48 = call noundef i32 @_ZN14Deoptimization19trap_request_reasonEi(i32 noundef %47)
  store i32 %48, ptr %12, align 4
  %49 = load ptr, ptr %7, align 8
  %50 = getelementptr inbounds i8, ptr %49, i64 8
  %51 = getelementptr inbounds %class.Phase, ptr %50, i32 0, i32 1
  %52 = load ptr, ptr %51, align 8
  %53 = load ptr, ptr %10, align 8
  %54 = load ptr, ptr %53, align 8
  %55 = getelementptr inbounds ptr, ptr %54, i64 18
  %56 = load ptr, ptr %55, align 8
  %57 = call noundef ptr %56(ptr noundef nonnull align 8 dereferenceable(81) %53)
  %58 = call noundef ptr @_ZNK8JVMState6methodEv(ptr noundef nonnull align 8 dereferenceable(64) %57)
  %59 = load ptr, ptr %10, align 8
  %60 = load ptr, ptr %59, align 8
  %61 = getelementptr inbounds ptr, ptr %60, i64 18
  %62 = load ptr, ptr %61, align 8
  %63 = call noundef ptr %62(ptr noundef nonnull align 8 dereferenceable(81) %59)
  %64 = call noundef i32 @_ZNK8JVMState3bciEv(ptr noundef nonnull align 8 dereferenceable(64) %63)
  %65 = load i32, ptr %12, align 4
  %66 = call noundef zeroext i1 @_ZN7Compile14too_many_trapsEP8ciMethodiN14Deoptimization11DeoptReasonE(ptr noundef nonnull align 8 dereferenceable(2316) %52, ptr noundef %58, i32 noundef %64, i32 noundef %65)
  br i1 %66, label %67, label %68

67:                                               ; preds = %37
  store i1 false, ptr %4, align 1
  br label %76

68:                                               ; preds = %37
  %69 = load ptr, ptr %10, align 8
  %70 = load ptr, ptr %9, align 8
  %71 = call noundef zeroext i1 @_ZN6IfNode16is_dominator_uncEP18CallStaticJavaNodeS1_(ptr noundef %69, ptr noundef %70)
  br i1 %71, label %73, label %72

72:                                               ; preds = %68
  store i1 false, ptr %4, align 1
  br label %76

73:                                               ; preds = %68
  store i1 true, ptr %4, align 1
  br label %76

74:                                               ; preds = %33, %30
  br label %75

75:                                               ; preds = %74, %22, %17
  store i1 false, ptr %4, align 1
  br label %76

76:                                               ; preds = %75, %73, %72, %67, %16
  %77 = load i1, ptr %4, align 1
  ret i1 %77
}