; Function Attrs: mustprogress nounwind uwtable
define hidden noundef zeroext i1 @_ZN6IfNode24is_side_effect_free_testEP8ProjNodeP12PhaseIterGVN(ptr nocapture noundef nonnull readonly align 8 dereferenceable(60) %0, ptr noundef %1, ptr nocapture noundef readonly %2) local_unnamed_addr #0 align 2 {
  %4 = icmp eq ptr %1, null
  br i1 %4, label %_ZN6IfNode21is_cmp_with_loadrangeEP8ProjNode.exit, label %5

5:                                                ; preds = %3
  %6 = tail call noundef ptr @_ZNK8ProjNode27is_uncommon_trap_if_patternEN14Deoptimization11DeoptReasonE(ptr noundef nonnull align 8 dereferenceable(57) %1, i32 noundef 0) #8
  %.not = icmp eq ptr %6, null
  br i1 %.not, label %_ZN6IfNode21is_cmp_with_loadrangeEP8ProjNode.exit, label %7

7:                                                ; preds = %5
  %8 = getelementptr inbounds i8, ptr %1, i64 32
  %9 = load i32, ptr %8, align 8
  %10 = icmp ult i32 %9, 3
  br i1 %10, label %11, label %_ZN6IfNode21is_cmp_with_loadrangeEP8ProjNode.exit

11:                                               ; preds = %7
  %12 = icmp eq i32 %9, 1
  br i1 %12, label %71, label %13

13:                                               ; preds = %11
  %14 = getelementptr inbounds i8, ptr %0, i64 8
  %15 = load ptr, ptr %14, align 8
  %16 = getelementptr inbounds i8, ptr %15, i64 8
  %17 = load ptr, ptr %16, align 8
  %.not.i = icmp eq ptr %17, null
  br i1 %.not.i, label %_ZN6IfNode21is_cmp_with_loadrangeEP8ProjNode.exit, label %18

18:                                               ; preds = %13
  %19 = getelementptr inbounds i8, ptr %17, i64 8
  %20 = load ptr, ptr %19, align 8
  %21 = getelementptr inbounds i8, ptr %20, i64 8
  %22 = load ptr, ptr %21, align 8
  %.not13.i = icmp eq ptr %22, null
  br i1 %.not13.i, label %_ZN6IfNode21is_cmp_with_loadrangeEP8ProjNode.exit, label %23

23:                                               ; preds = %18
  %24 = getelementptr inbounds i8, ptr %22, i64 8
  %25 = load ptr, ptr %24, align 8
  %26 = getelementptr inbounds i8, ptr %25, i64 16
  %27 = load ptr, ptr %26, align 8
  %.not14.i = icmp eq ptr %27, null
  br i1 %.not14.i, label %_ZN6IfNode21is_cmp_with_loadrangeEP8ProjNode.exit, label %28

28:                                               ; preds = %23
  %29 = load ptr, ptr %27, align 8
  %30 = load ptr, ptr %29, align 8
  %31 = tail call noundef i32 %30(ptr noundef nonnull align 8 dereferenceable(52) %27) #8
  %32 = icmp eq i32 %31, 200
  br i1 %32, label %33, label %_ZN6IfNode21is_cmp_with_loadrangeEP8ProjNode.exit

33:                                               ; preds = %28
  %34 = getelementptr inbounds i8, ptr %27, i64 8
  %35 = load ptr, ptr %34, align 8
  %36 = load ptr, ptr %35, align 8
  %.not15.i = icmp eq ptr %36, null
  br i1 %.not15.i, label %39, label %37

37:                                               ; preds = %33
  %38 = icmp eq ptr %36, %1
  br i1 %38, label %69, label %_ZN6IfNode21is_cmp_with_loadrangeEP8ProjNode.exit

39:                                               ; preds = %33
  %40 = getelementptr inbounds i8, ptr %35, i64 16
  %41 = load ptr, ptr %40, align 8
  %.not16.i = icmp eq ptr %41, null
  br i1 %.not16.i, label %_ZN6IfNode21is_cmp_with_loadrangeEP8ProjNode.exit, label %42

42:                                               ; preds = %39
  %43 = getelementptr inbounds i8, ptr %41, i64 44
  %44 = load i32, ptr %43, align 4
  %45 = and i32 %44, 1023
  %46 = icmp eq i32 %45, 512
  br i1 %46, label %47, label %_ZN6IfNode21is_cmp_with_loadrangeEP8ProjNode.exit

47:                                               ; preds = %42
  %48 = getelementptr inbounds i8, ptr %41, i64 8
  %49 = load ptr, ptr %48, align 8
  %50 = getelementptr inbounds i8, ptr %49, i64 8
  %51 = load ptr, ptr %50, align 8
  %.not17.i = icmp eq ptr %51, null
  br i1 %.not17.i, label %_ZN6IfNode21is_cmp_with_loadrangeEP8ProjNode.exit, label %52

52:                                               ; preds = %47
  %53 = load ptr, ptr %51, align 8
  %54 = load ptr, ptr %53, align 8
  %55 = tail call noundef i32 %54(ptr noundef nonnull align 8 dereferenceable(52) %51) #8
  %56 = icmp eq i32 %55, 60
  br i1 %56, label %57, label %_ZN6IfNode21is_cmp_with_loadrangeEP8ProjNode.exit

57:                                               ; preds = %52
  %58 = load ptr, ptr %34, align 8
  %59 = getelementptr inbounds i8, ptr %58, i64 16
  %60 = load ptr, ptr %59, align 8
  %61 = getelementptr inbounds i8, ptr %60, i64 8
  %62 = load ptr, ptr %61, align 8
  %63 = getelementptr inbounds i8, ptr %62, i64 8
  %64 = load ptr, ptr %63, align 8
  %65 = getelementptr inbounds i8, ptr %64, i64 8
  %66 = load ptr, ptr %65, align 8
  %67 = load ptr, ptr %66, align 8
  %68 = icmp eq ptr %67, %1
  br i1 %68, label %69, label %_ZN6IfNode21is_cmp_with_loadrangeEP8ProjNode.exit

69:                                               ; preds = %57, %37
  %70 = tail call noundef zeroext i1 @_ZN6IfNode13is_null_checkEP8ProjNodeP12PhaseIterGVN(ptr noundef nonnull align 8 dereferenceable(60) %0, ptr noundef nonnull %1, ptr noundef %2)
  br i1 %70, label %71, label %_ZN6IfNode21is_cmp_with_loadrangeEP8ProjNode.exit

71:                                               ; preds = %69, %11
  %72 = tail call noundef ptr @_ZNK8ProjNode27is_uncommon_trap_if_patternEN14Deoptimization11DeoptReasonE(ptr noundef nonnull align 8 dereferenceable(57) %1, i32 noundef 0) #8
  %73 = getelementptr inbounds i8, ptr %1, i64 8
  %74 = load ptr, ptr %73, align 8
  %75 = load ptr, ptr %74, align 8
  %76 = getelementptr inbounds i8, ptr %75, i64 8
  %77 = load ptr, ptr %76, align 8
  %78 = load ptr, ptr %77, align 8
  %79 = tail call noundef ptr @_ZNK8ProjNode27is_uncommon_trap_if_patternEN14Deoptimization11DeoptReasonE(ptr noundef nonnull align 8 dereferenceable(57) %78, i32 noundef 0) #8
  %80 = tail call noundef i32 @_ZNK18CallStaticJavaNode21uncommon_trap_requestEv(ptr noundef nonnull align 8 dereferenceable(145) %72) #8
  %81 = icmp slt i32 %80, 0
  %82 = xor i32 %80, -1
  %83 = lshr i32 %82, 3
  %84 = and i32 %83, 31
  %.0.i20 = select i1 %81, i32 %84, i32 9
  %85 = getelementptr inbounds i8, ptr %2, i64 16
  %86 = load ptr, ptr %85, align 8
  %87 = load ptr, ptr %79, align 8
  %88 = getelementptr inbounds i8, ptr %87, i64 144
  %89 = load ptr, ptr %88, align 8
  %90 = tail call noundef ptr %89(ptr noundef nonnull align 8 dereferenceable(81) %79) #8
  %91 = getelementptr inbounds i8, ptr %90, i64 48
  %92 = load ptr, ptr %91, align 8
  %93 = load ptr, ptr %79, align 8
  %94 = getelementptr inbounds i8, ptr %93, i64 144
  %95 = load ptr, ptr %94, align 8
  %96 = tail call noundef ptr %95(ptr noundef nonnull align 8 dereferenceable(81) %79) #8
  %97 = getelementptr inbounds i8, ptr %96, i64 36
  %98 = load i32, ptr %97, align 4
  %99 = tail call noundef zeroext i1 @_ZN7Compile14too_many_trapsEP8ciMethodiN14Deoptimization11DeoptReasonE(ptr noundef nonnull align 8 dereferenceable(2316) %86, ptr noundef %92, i32 noundef %98, i32 noundef %.0.i20) #8
  br i1 %99, label %_ZN6IfNode21is_cmp_with_loadrangeEP8ProjNode.exit, label %100

100:                                              ; preds = %71
  %101 = tail call noundef zeroext i1 @_ZN6IfNode16is_dominator_uncEP18CallStaticJavaNodeS1_(ptr noundef nonnull %79, ptr noundef nonnull %72)
  br label %_ZN6IfNode21is_cmp_with_loadrangeEP8ProjNode.exit

_ZN6IfNode21is_cmp_with_loadrangeEP8ProjNode.exit: ; preds = %57, %52, %47, %42, %39, %37, %28, %23, %18, %13, %5, %7, %69, %100, %71, %3
  %.0 = phi i1 [ false, %3 ], [ false, %71 ], [ %101, %100 ], [ false, %69 ], [ false, %7 ], [ false, %5 ], [ false, %13 ], [ false, %18 ], [ false, %23 ], [ false, %28 ], [ false, %37 ], [ false, %39 ], [ false, %42 ], [ false, %47 ], [ false, %52 ], [ false, %57 ]
  ret i1 %.0
}